target datalayout = "e-m:e-p270:32:32-p271:32:32-p272:64:64-i64:64-i128:128-f80:128-n8:16:32:64-S128"
target triple = "x86_64-pc-linux-gnu"

; Function Attrs: nounwind uwtable
define internal void @negate8(ptr noundef %0, ptr noundef %1, i64 noundef %2, i64 noundef %3, i32 noundef %4, i32 noundef %5, i32 noundef %6, i32 noundef %7, i32 noundef %8) #0 {
  %10 = alloca ptr, align 8
  %11 = alloca ptr, align 8
  %12 = alloca i64, align 8
  %13 = alloca i64, align 8
  %14 = alloca i32, align 4
  %15 = alloca i32, align 4
  %16 = alloca i32, align 4
  %17 = alloca i32, align 4
  %18 = alloca i32, align 4
  %19 = alloca i32, align 4
  %20 = alloca i32, align 4
  %21 = alloca i32, align 4
  store ptr %0, ptr %10, align 8, !tbaa !9
  store ptr %1, ptr %11, align 8, !tbaa !9
  store i64 %2, ptr %12, align 8, !tbaa !71
  store i64 %3, ptr %13, align 8, !tbaa !71
  store i32 %4, ptr %14, align 4, !tbaa !11
  store i32 %5, ptr %15, align 4, !tbaa !11
  store i32 %6, ptr %16, align 4, !tbaa !11
  store i32 %7, ptr %17, align 4, !tbaa !11
  store i32 %8, ptr %18, align 4, !tbaa !11
  call void @llvm.lifetime.start.p0(i64 4, ptr %19) #5
  store i32 0, ptr %19, align 4, !tbaa !11
  br label %22

22:                                               ; preds = %56, %9
  %23 = load i32, ptr %19, align 4, !tbaa !11
  %24 = load i32, ptr %15, align 4, !tbaa !11
  %25 = icmp slt i32 %23, %24
  br i1 %25, label %27, label %26

26:                                               ; preds = %22
  store i32 2, ptr %20, align 4
  call void @llvm.lifetime.end.p0(i64 4, ptr %19) #5
  br label %59

27:                                               ; preds = %22
  call void @llvm.lifetime.start.p0(i64 4, ptr %21) #5
  store i32 0, ptr %21, align 4, !tbaa !11
  br label %28

28:                                               ; preds = %46, %27
  %29 = load i32, ptr %21, align 4, !tbaa !11
  %30 = load i32, ptr %14, align 4, !tbaa !11
  %31 = icmp slt i32 %29, %30
  br i1 %31, label %33, label %32

32:                                               ; preds = %28
  store i32 5, ptr %20, align 4
  call void @llvm.lifetime.end.p0(i64 4, ptr %21) #5
  br label %49

33:                                               ; preds = %28
  %34 = load ptr, ptr %10, align 8, !tbaa !9
  %35 = load i32, ptr %21, align 4, !tbaa !11
  %36 = sext i32 %35 to i64
  %37 = getelementptr inbounds i8, ptr %34, i64 %36
  %38 = load i8, ptr %37, align 1, !tbaa !58
  %39 = zext i8 %38 to i32
  %40 = sub nsw i32 255, %39
  %41 = trunc i32 %40 to i8
  %42 = load ptr, ptr %11, align 8, !tbaa !9
  %43 = load i32, ptr %21, align 4, !tbaa !11
  %44 = sext i32 %43 to i64
  %45 = getelementptr inbounds i8, ptr %42, i64 %44
  store i8 %41, ptr %45, align 1, !tbaa !58
  br label %46

46:                                               ; preds = %33
  %47 = load i32, ptr %21, align 4, !tbaa !11
  %48 = add nsw i32 %47, 1
  store i32 %48, ptr %21, align 4, !tbaa !11
  br label %28, !llvm.loop !72

49:                                               ; preds = %32
  %50 = load i64, ptr %13, align 8, !tbaa !71
  %51 = load ptr, ptr %11, align 8, !tbaa !9
  %52 = getelementptr inbounds i8, ptr %51, i64 %50
  store ptr %52, ptr %11, align 8, !tbaa !9
  %53 = load i64, ptr %12, align 8, !tbaa !71
  %54 = load ptr, ptr %10, align 8, !tbaa !9
  %55 = getelementptr inbounds i8, ptr %54, i64 %53
  store ptr %55, ptr %10, align 8, !tbaa !9
  br label %56

56:                                               ; preds = %49
  %57 = load i32, ptr %19, align 4, !tbaa !11
  %58 = add nsw i32 %57, 1
  store i32 %58, ptr %19, align 4, !tbaa !11
  br label %22, !llvm.loop !73

59:                                               ; preds = %26
  ret void
}