; Function Attrs: nofree norecurse nosync nounwind memory(argmem: readwrite) uwtable
define internal void @negate8(ptr noundef readonly captures(none) %0, ptr noundef writeonly captures(none) %1, i64 noundef %2, i64 noundef %3, i32 noundef %4, i32 noundef %5, i32 %6, i32 %7, i32 %8) #4 {
  %10 = icmp sgt i32 %5, 0
  %11 = icmp sgt i32 %4, 0
  %or.cond = and i1 %10, %11
  br i1 %or.cond, label %.preheader.us.preheader, label %._crit_edge20

.preheader.us.preheader:                          ; preds = %9
  %wide.trip.count = zext nneg i32 %4 to i64
  br label %.preheader.us

.preheader.us:                                    ; preds = %.preheader.us.preheader, %._crit_edge.us
  %.01319.us = phi i32 [ %19, %._crit_edge.us ], [ 0, %.preheader.us.preheader ]
  %.01418.us = phi ptr [ %18, %._crit_edge.us ], [ %0, %.preheader.us.preheader ]
  %.01517.us = phi ptr [ %17, %._crit_edge.us ], [ %1, %.preheader.us.preheader ]
  br label %12

12:                                               ; preds = %.preheader.us, %12
  %indvars.iv = phi i64 [ 0, %.preheader.us ], [ %indvars.iv.next, %12 ]
  %13 = getelementptr inbounds nuw i8, ptr %.01418.us, i64 %indvars.iv
  %14 = load i8, ptr %13, align 1, !tbaa !52
  %15 = xor i8 %14, -1
  %16 = getelementptr inbounds nuw i8, ptr %.01517.us, i64 %indvars.iv
  store i8 %15, ptr %16, align 1, !tbaa !52
  %indvars.iv.next = add nuw nsw i64 %indvars.iv, 1
  %exitcond.not = icmp eq i64 %indvars.iv.next, %wide.trip.count
  br i1 %exitcond.not, label %._crit_edge.us, label %12, !llvm.loop !63

._crit_edge.us:                                   ; preds = %12
  %17 = getelementptr inbounds i8, ptr %.01517.us, i64 %3
  %18 = getelementptr inbounds i8, ptr %.01418.us, i64 %2
  %19 = add nuw nsw i32 %.01319.us, 1
  %exitcond23.not = icmp eq i32 %19, %5
  br i1 %exitcond23.not, label %._crit_edge20, label %.preheader.us, !llvm.loop !64

._crit_edge20:                                    ; preds = %._crit_edge.us, %9
  ret void
}